target datalayout = "e-m:e-p270:32:32-p271:32:32-p272:64:64-i64:64-i128:128-f80:128-n8:16:32:64-S128"
target triple = "x86_64-pc-linux-gnu"

@.str.8 = private unnamed_addr constant [35 x i8] c"../openssl/test/asn1_encode_test.c\00", align 1
@.str.53 = private unnamed_addr constant [5 x i8] c"temp\00", align 1
@INVALIDTEMPLATE_it.local_it = internal constant { i8, [7 x i8], i64, ptr, i64, ptr, i64, ptr } { i8 1, [7 x i8] zeroinitializer, i64 16, ptr @INVALIDTEMPLATE_seq_tt, i64 1, ptr null, i64 8, ptr @.str.54 }, align 8

; Function Attrs: nounwind uwtable
define internal ptr @INVALIDTEMPLATE_it() #0 {
  ret ptr @INVALIDTEMPLATE_it.local_it
}

; Function Attrs: nounwind uwtable
define internal void @INVALIDTEMPLATE_free(ptr noundef %0) #0 {
  %2 = alloca ptr, align 8
  store ptr %0, ptr %2, align 8, !tbaa !4
  %3 = load ptr, ptr %2, align 8, !tbaa !4
  %4 = call ptr @INVALIDTEMPLATE_it()
  call void @ASN1_item_free(ptr noundef %3, ptr noundef %4)
  ret void
}

; Function Attrs: nounwind uwtable
define internal i32 @i2d_INVALIDTEMPLATE(ptr noundef %0, ptr noundef %1) #0 {
  %3 = alloca ptr, align 8
  %4 = alloca ptr, align 8
  store ptr %0, ptr %3, align 8, !tbaa !4
  store ptr %1, ptr %4, align 8, !tbaa !36
  %5 = load ptr, ptr %3, align 8, !tbaa !4
  %6 = load ptr, ptr %4, align 8, !tbaa !36
  %7 = call ptr @INVALIDTEMPLATE_it()
  %8 = call i32 @ASN1_item_i2d(ptr noundef %5, ptr noundef %6, ptr noundef %7)
  ret i32 %8
}

; Function Attrs: nounwind uwtable
define internal ptr @INVALIDTEMPLATE_new() #0 {
  %1 = call ptr @INVALIDTEMPLATE_it()
  %2 = call ptr @ASN1_item_new(ptr noundef %1)
  ret ptr %2
}

; Function Attrs: nounwind uwtable
define internal i32 @test_invalid_template() #0 {
  %1 = alloca i32, align 4
  %2 = alloca ptr, align 8
  %3 = alloca i32, align 4
  %4 = alloca i32, align 4
  call void @llvm.lifetime.start.p0(i64 8, ptr %2) #6
  %5 = call ptr @INVALIDTEMPLATE_new()
  store ptr %5, ptr %2, align 8, !tbaa !4
  call void @llvm.lifetime.start.p0(i64 4, ptr %3) #6
  %6 = load ptr, ptr %2, align 8, !tbaa !4
  %7 = call i32 @test_ptr(ptr noundef @.str.8, i32 noundef 883, ptr noundef @.str.53, ptr noundef %6)
  %8 = icmp ne i32 %7, 0
  br i1 %8, label %10, label %9

9:                                                ; preds = %0
  store i32 0, ptr %1, align 4
  store i32 1, ptr %4, align 4
  br label %17

10:                                               ; preds = %0
  %11 = load ptr, ptr %2, align 8, !tbaa !4
  %12 = call i32 @i2d_INVALIDTEMPLATE(ptr noundef %11, ptr noundef null)
  store i32 %12, ptr %3, align 4, !tbaa !8
  %13 = load ptr, ptr %2, align 8, !tbaa !4
  call void @INVALIDTEMPLATE_free(ptr noundef %13)
  %14 = load i32, ptr %3, align 4, !tbaa !8
  %15 = icmp slt i32 %14, 0
  %16 = zext i1 %15 to i32
  store i32 %16, ptr %1, align 4
  store i32 1, ptr %4, align 4
  br label %17

17:                                               ; preds = %10, %9
  call void @llvm.lifetime.end.p0(i64 4, ptr %3) #6
  call void @llvm.lifetime.end.p0(i64 8, ptr %2) #6
  %18 = load i32, ptr %1, align 4
  ret i32 %18
}