; Function Attrs: nounwind uwtable
define internal range(i32 0, 2) i32 @test_invalid_template() #0 {
  %1 = tail call ptr @ASN1_item_new(ptr noundef nonnull @INVALIDTEMPLATE_it.local_it) #7
  %2 = tail call i32 @test_ptr(ptr noundef nonnull @.str.8, i32 noundef 883, ptr noundef nonnull @.str.53, ptr noundef %1) #7
  %.not = icmp eq i32 %2, 0
  br i1 %.not, label %5, label %3

3:                                                ; preds = %0
  %4 = tail call i32 @ASN1_item_i2d(ptr noundef %1, ptr noundef null, ptr noundef nonnull @INVALIDTEMPLATE_it.local_it) #7
  tail call void @ASN1_item_free(ptr noundef %1, ptr noundef nonnull @INVALIDTEMPLATE_it.local_it) #7
  %.lobit = lshr i32 %4, 31
  br label %5

5:                                                ; preds = %0, %3
  %.0 = phi i32 [ %.lobit, %3 ], [ 0, %0 ]
  ret i32 %.0
}